target datalayout = "e-m:e-p270:32:32-p271:32:32-p272:64:64-i64:64-i128:128-f80:128-n8:16:32:64-S128"
target triple = "x86_64-pc-linux-gnu"

%"struct.std::array" = type { [5 x i64] }
%"class.std::__cxx11::basic_string" = type { %"struct.std::__cxx11::basic_string<char>::_Alloc_hider", i64, %union.anon.7 }
%"struct.std::__cxx11::basic_string<char>::_Alloc_hider" = type { ptr }
%union.anon.7 = type { i64, [8 x i8] }
%"class.llvm::StringRef" = type { ptr, i64 }
%"class.llvm::Triple" = type { %"class.std::__cxx11::basic_string", i32, i32, i32, i32, i32, i32 }
%"class.llvm::ArrayRef" = type { ptr, i64 }
%"class.llvm::ArrayRef.26" = type { ptr, i64 }
%"struct.llvm::SubtargetFeatureKV" = type { ptr, ptr, i32, %"class.llvm::FeatureBitArray" }
%"class.llvm::FeatureBitArray" = type { %"class.llvm::FeatureBitset" }
%"class.llvm::FeatureBitset" = type { %"struct.std::array" }
%"struct.llvm::SubtargetSubTypeKV" = type { ptr, %"class.llvm::FeatureBitArray", %"class.llvm::FeatureBitArray", ptr }

@.str.72 = private unnamed_addr constant [10 x i8] c"apple-a12\00", align 1
@.str.598 = private unnamed_addr constant [8 x i8] c"generic\00", align 1
@.str.1082 = private unnamed_addr constant [5 x i8] c"+v8a\00", align 1

; Function Attrs: mustprogress nounwind uwtable
define linkonce_odr hidden void @_ZN4llvm25AArch64GenMCSubtargetInfoC2ERKNS_6TripleENS_9StringRefES4_S4_NS_8ArrayRefINS_18SubtargetFeatureKVEEENS5_INS_18SubtargetSubTypeKVEEEPKNS_19MCWriteProcResEntryEPKNS_19MCWriteLatencyEntryEPKNS_18MCReadAdvanceEntryEPKNS_10InstrStageEPKjSN_(ptr noundef nonnull align 8 dereferenceable(288) %0, ptr noundef nonnull align 8 dereferenceable(56) %1, ptr %2, i64 %3, ptr %4, i64 %5, ptr noundef byval(%"class.llvm::StringRef") align 8 %6, ptr noundef byval(%"class.llvm::ArrayRef") align 8 %7, ptr noundef byval(%"class.llvm::ArrayRef.26") align 8 %8, ptr noundef %9, ptr noundef %10, ptr noundef %11, ptr noundef %12, ptr noundef %13, ptr noundef %14) unnamed_addr #0 comdat align 2 {
  %16 = alloca %"class.llvm::StringRef", align 8
  %17 = alloca %"class.llvm::StringRef", align 8
  %18 = alloca ptr, align 8
  %19 = alloca ptr, align 8
  %20 = alloca ptr, align 8
  %21 = alloca ptr, align 8
  %22 = alloca ptr, align 8
  %23 = alloca ptr, align 8
  %24 = alloca ptr, align 8
  %25 = alloca ptr, align 8
  %26 = alloca %"class.llvm::StringRef", align 8
  %27 = alloca %"class.llvm::StringRef", align 8
  %28 = alloca %"class.llvm::StringRef", align 8
  %29 = alloca %"class.llvm::ArrayRef", align 8
  %30 = alloca %"class.llvm::ArrayRef.26", align 8
  %31 = getelementptr inbounds nuw { ptr, i64 }, ptr %16, i32 0, i32 0
  store ptr %2, ptr %31, align 8
  %32 = getelementptr inbounds nuw { ptr, i64 }, ptr %16, i32 0, i32 1
  store i64 %3, ptr %32, align 8
  %33 = getelementptr inbounds nuw { ptr, i64 }, ptr %17, i32 0, i32 0
  store ptr %4, ptr %33, align 8
  %34 = getelementptr inbounds nuw { ptr, i64 }, ptr %17, i32 0, i32 1
  store i64 %5, ptr %34, align 8
  store ptr %0, ptr %18, align 8
  store ptr %1, ptr %19, align 8
  store ptr %9, ptr %20, align 8
  store ptr %10, ptr %21, align 8
  store ptr %11, ptr %22, align 8
  store ptr %12, ptr %23, align 8
  store ptr %13, ptr %24, align 8
  store ptr %14, ptr %25, align 8
  %35 = load ptr, ptr %18, align 8
  %36 = load ptr, ptr %19, align 8
  call void @llvm.memcpy.p0.p0.i64(ptr align 8 %26, ptr align 8 %16, i64 16, i1 false)
  call void @llvm.memcpy.p0.p0.i64(ptr align 8 %27, ptr align 8 %17, i64 16, i1 false)
  call void @llvm.memcpy.p0.p0.i64(ptr align 8 %28, ptr align 8 %6, i64 16, i1 false)
  call void @llvm.memcpy.p0.p0.i64(ptr align 8 %29, ptr align 8 %7, i64 16, i1 false)
  call void @llvm.memcpy.p0.p0.i64(ptr align 8 %30, ptr align 8 %8, i64 16, i1 false)
  %37 = load ptr, ptr %20, align 8
  %38 = load ptr, ptr %21, align 8
  %39 = load ptr, ptr %22, align 8
  %40 = load ptr, ptr %23, align 8
  %41 = load ptr, ptr %24, align 8
  %42 = load ptr, ptr %25, align 8
  %43 = getelementptr inbounds nuw { ptr, i64 }, ptr %26, i32 0, i32 0
  %44 = load ptr, ptr %43, align 8
  %45 = getelementptr inbounds nuw { ptr, i64 }, ptr %26, i32 0, i32 1
  %46 = load i64, ptr %45, align 8
  %47 = getelementptr inbounds nuw { ptr, i64 }, ptr %27, i32 0, i32 0
  %48 = load ptr, ptr %47, align 8
  %49 = getelementptr inbounds nuw { ptr, i64 }, ptr %27, i32 0, i32 1
  %50 = load i64, ptr %49, align 8
  call void @_ZN4llvm15MCSubtargetInfoC2ERKNS_6TripleENS_9StringRefES4_S4_NS_8ArrayRefINS_18SubtargetFeatureKVEEENS5_INS_18SubtargetSubTypeKVEEEPKNS_19MCWriteProcResEntryEPKNS_19MCWriteLatencyEntryEPKNS_18MCReadAdvanceEntryEPKNS_10InstrStageEPKjSN_(ptr noundef nonnull align 8 dereferenceable(288) %35, ptr noundef nonnull align 8 dereferenceable(56) %36, ptr %44, i64 %46, ptr %48, i64 %50, ptr noundef byval(%"class.llvm::StringRef") align 8 %28, ptr noundef byval(%"class.llvm::ArrayRef") align 8 %29, ptr noundef byval(%"class.llvm::ArrayRef.26") align 8 %30, ptr noundef %37, ptr noundef %38, ptr noundef %39, ptr noundef %40, ptr noundef %41, ptr noundef %42)
  store ptr getelementptr inbounds inrange(-16, 120) ({ [17 x ptr] }, ptr @_ZTVN4llvm25AArch64GenMCSubtargetInfoE, i32 0, i32 0, i32 2), ptr %35, align 8
  ret void
}

; Function Attrs: mustprogress nounwind uwtable
define linkonce_odr hidden void @_ZN4llvm8ArrayRefINS_18SubtargetSubTypeKVEEC2ILm71EEERAT__KS1_(ptr noundef nonnull align 8 dereferenceable(16) %0, ptr noundef nonnull align 8 dereferenceable(6816) %1) unnamed_addr #0 comdat align 2 {
  %3 = alloca ptr, align 8
  %4 = alloca ptr, align 8
  store ptr %0, ptr %3, align 8
  store ptr %1, ptr %4, align 8
  %5 = load ptr, ptr %3, align 8
  %6 = getelementptr inbounds nuw %"class.llvm::ArrayRef.26", ptr %5, i32 0, i32 0
  %7 = load ptr, ptr %4, align 8
  %8 = getelementptr inbounds [71 x %"struct.llvm::SubtargetSubTypeKV"], ptr %7, i64 0, i64 0
  store ptr %8, ptr %6, align 8
  %9 = getelementptr inbounds nuw %"class.llvm::ArrayRef.26", ptr %5, i32 0, i32 1
  store i64 71, ptr %9, align 8
  ret void
}

; Function Attrs: mustprogress nounwind uwtable
define linkonce_odr hidden void @_ZN4llvm8ArrayRefINS_18SubtargetFeatureKVEEC2ILm287EEERAT__KS1_(ptr noundef nonnull align 8 dereferenceable(16) %0, ptr noundef nonnull align 8 dereferenceable(18368) %1) unnamed_addr #0 comdat align 2 {
  %3 = alloca ptr, align 8
  %4 = alloca ptr, align 8
  store ptr %0, ptr %3, align 8
  store ptr %1, ptr %4, align 8
  %5 = load ptr, ptr %3, align 8
  %6 = getelementptr inbounds nuw %"class.llvm::ArrayRef", ptr %5, i32 0, i32 0
  %7 = load ptr, ptr %4, align 8
  %8 = getelementptr inbounds [287 x %"struct.llvm::SubtargetFeatureKV"], ptr %7, i64 0, i64 0
  store ptr %8, ptr %6, align 8
  %9 = getelementptr inbounds nuw %"class.llvm::ArrayRef", ptr %5, i32 0, i32 1
  store i64 287, ptr %9, align 8
  ret void
}

; Function Attrs: mustprogress nounwind uwtable
define linkonce_odr hidden noundef i32 @_ZNK4llvm6Triple10getSubArchEv(ptr noundef nonnull align 8 dereferenceable(56) %0) #0 comdat align 2 {
  %2 = alloca ptr, align 8
  store ptr %0, ptr %2, align 8
  %3 = load ptr, ptr %2, align 8
  %4 = getelementptr inbounds nuw %"class.llvm::Triple", ptr %3, i32 0, i32 2
  %5 = load i32, ptr %4, align 4
  ret i32 %5
}

; Function Attrs: mustprogress nounwind uwtable
define linkonce_odr hidden noundef i32 @_ZNK4llvm6Triple7getArchEv(ptr noundef nonnull align 8 dereferenceable(56) %0) #0 comdat align 2 {
  %2 = alloca ptr, align 8
  store ptr %0, ptr %2, align 8
  %3 = load ptr, ptr %2, align 8
  %4 = getelementptr inbounds nuw %"class.llvm::Triple", ptr %3, i32 0, i32 1
  %5 = load i32, ptr %4, align 8
  ret i32 %5
}

; Function Attrs: mustprogress nounwind uwtable
define linkonce_odr hidden noundef i64 @_ZNSt11char_traitsIcE6lengthEPKc(ptr noundef %0) #0 comdat align 2 {
  %2 = alloca ptr, align 8
  store ptr %0, ptr %2, align 8
  %3 = load ptr, ptr %2, align 8
  %4 = call i64 @strlen(ptr noundef %3) #12
  ret i64 %4
}

; Function Attrs: mustprogress nounwind uwtable
define internal noundef ptr @_ZN4llvmL32createAArch64MCSubtargetInfoImplERKNS_6TripleENS_9StringRefES3_S3_(ptr noundef nonnull align 8 dereferenceable(56) %0, ptr %1, i64 %2, ptr %3, i64 %4, ptr noundef byval(%"class.llvm::StringRef") align 8 %5) #0 {
  %7 = alloca %"class.llvm::StringRef", align 8
  %8 = alloca %"class.llvm::StringRef", align 8
  %9 = alloca ptr, align 8
  %10 = alloca %"class.llvm::StringRef", align 8
  %11 = alloca %"class.llvm::StringRef", align 8
  %12 = alloca %"class.llvm::StringRef", align 8
  %13 = alloca %"class.llvm::StringRef", align 8
  %14 = alloca %"class.llvm::StringRef", align 8
  %15 = alloca %"class.llvm::StringRef", align 8
  %16 = alloca %"class.llvm::StringRef", align 8
  %17 = alloca %"class.llvm::ArrayRef", align 8
  %18 = alloca %"class.llvm::ArrayRef.26", align 8
  %19 = getelementptr inbounds nuw { ptr, i64 }, ptr %7, i32 0, i32 0
  store ptr %1, ptr %19, align 8
  %20 = getelementptr inbounds nuw { ptr, i64 }, ptr %7, i32 0, i32 1
  store i64 %2, ptr %20, align 8
  %21 = getelementptr inbounds nuw { ptr, i64 }, ptr %8, i32 0, i32 0
  store ptr %3, ptr %21, align 8
  %22 = getelementptr inbounds nuw { ptr, i64 }, ptr %8, i32 0, i32 1
  store i64 %4, ptr %22, align 8
  store ptr %0, ptr %9, align 8
  call void @llvm.memcpy.p0.p0.i64(ptr align 8 %11, ptr align 8 %7, i64 16, i1 false)
  %23 = getelementptr inbounds nuw { ptr, i64 }, ptr %11, i32 0, i32 0
  %24 = load ptr, ptr %23, align 8
  %25 = getelementptr inbounds nuw { ptr, i64 }, ptr %11, i32 0, i32 1
  %26 = load i64, ptr %25, align 8
  %27 = call { ptr, i64 } @_ZN4llvm7AArch6415resolveCPUAliasENS_9StringRefE(ptr %24, i64 %26)
  %28 = getelementptr inbounds nuw { ptr, i64 }, ptr %10, i32 0, i32 0
  %29 = extractvalue { ptr, i64 } %27, 0
  store ptr %29, ptr %28, align 8
  %30 = getelementptr inbounds nuw { ptr, i64 }, ptr %10, i32 0, i32 1
  %31 = extractvalue { ptr, i64 } %27, 1
  store i64 %31, ptr %30, align 8
  call void @llvm.memcpy.p0.p0.i64(ptr align 8 %7, ptr align 8 %10, i64 16, i1 false)
  call void @llvm.memcpy.p0.p0.i64(ptr align 8 %13, ptr align 8 %8, i64 16, i1 false)
  %32 = getelementptr inbounds nuw { ptr, i64 }, ptr %13, i32 0, i32 0
  %33 = load ptr, ptr %32, align 8
  %34 = getelementptr inbounds nuw { ptr, i64 }, ptr %13, i32 0, i32 1
  %35 = load i64, ptr %34, align 8
  %36 = call { ptr, i64 } @_ZN4llvm7AArch6415resolveCPUAliasENS_9StringRefE(ptr %33, i64 %35)
  %37 = getelementptr inbounds nuw { ptr, i64 }, ptr %12, i32 0, i32 0
  %38 = extractvalue { ptr, i64 } %36, 0
  store ptr %38, ptr %37, align 8
  %39 = getelementptr inbounds nuw { ptr, i64 }, ptr %12, i32 0, i32 1
  %40 = extractvalue { ptr, i64 } %36, 1
  store i64 %40, ptr %39, align 8
  call void @llvm.memcpy.p0.p0.i64(ptr align 8 %8, ptr align 8 %12, i64 16, i1 false)
  %41 = call noalias noundef nonnull ptr @_Znwm(i64 noundef 288) #13
  %42 = load ptr, ptr %9, align 8
  call void @llvm.memcpy.p0.p0.i64(ptr align 8 %14, ptr align 8 %7, i64 16, i1 false)
  call void @llvm.memcpy.p0.p0.i64(ptr align 8 %15, ptr align 8 %8, i64 16, i1 false)
  call void @llvm.memcpy.p0.p0.i64(ptr align 8 %16, ptr align 8 %5, i64 16, i1 false)
  call void @_ZN4llvm8ArrayRefINS_18SubtargetFeatureKVEEC2ILm287EEERAT__KS1_(ptr noundef nonnull align 8 dereferenceable(16) %17, ptr noundef nonnull align 8 dereferenceable(18368) @_ZN4llvm16AArch64FeatureKVE)
  call void @_ZN4llvm8ArrayRefINS_18SubtargetSubTypeKVEEC2ILm71EEERAT__KS1_(ptr noundef nonnull align 8 dereferenceable(16) %18, ptr noundef nonnull align 8 dereferenceable(6816) @_ZN4llvm16AArch64SubTypeKVE)
  %43 = getelementptr inbounds nuw { ptr, i64 }, ptr %14, i32 0, i32 0
  %44 = load ptr, ptr %43, align 8
  %45 = getelementptr inbounds nuw { ptr, i64 }, ptr %14, i32 0, i32 1
  %46 = load i64, ptr %45, align 8
  %47 = getelementptr inbounds nuw { ptr, i64 }, ptr %15, i32 0, i32 0
  %48 = load ptr, ptr %47, align 8
  %49 = getelementptr inbounds nuw { ptr, i64 }, ptr %15, i32 0, i32 1
  %50 = load i64, ptr %49, align 8
  call void @_ZN4llvm25AArch64GenMCSubtargetInfoC2ERKNS_6TripleENS_9StringRefES4_S4_NS_8ArrayRefINS_18SubtargetFeatureKVEEENS5_INS_18SubtargetSubTypeKVEEEPKNS_19MCWriteProcResEntryEPKNS_19MCWriteLatencyEntryEPKNS_18MCReadAdvanceEntryEPKNS_10InstrStageEPKjSN_(ptr noundef nonnull align 8 dereferenceable(288) %41, ptr noundef nonnull align 8 dereferenceable(56) %42, ptr %44, i64 %46, ptr %48, i64 %50, ptr noundef byval(%"class.llvm::StringRef") align 8 %16, ptr noundef byval(%"class.llvm::ArrayRef") align 8 %17, ptr noundef byval(%"class.llvm::ArrayRef.26") align 8 %18, ptr noundef @_ZN4llvm24AArch64WriteProcResTableE, ptr noundef @_ZN4llvm24AArch64WriteLatencyTableE, ptr noundef @_ZN4llvm23AArch64ReadAdvanceTableE, ptr noundef null, ptr noundef null, ptr noundef null)
  ret ptr %41
}

; Function Attrs: mustprogress nounwind uwtable
define linkonce_odr hidden noundef zeroext i1 @_ZNK4llvm6Triple8isArm64eEv(ptr noundef nonnull align 8 dereferenceable(56) %0) #0 comdat align 2 {
  %2 = alloca ptr, align 8
  store ptr %0, ptr %2, align 8
  %3 = load ptr, ptr %2, align 8
  %4 = call noundef i32 @_ZNK4llvm6Triple7getArchEv(ptr noundef nonnull align 8 dereferenceable(56) %3)
  %5 = icmp eq i32 %4, 3
  br i1 %5, label %6, label %9

6:                                                ; preds = %1
  %7 = call noundef i32 @_ZNK4llvm6Triple10getSubArchEv(ptr noundef nonnull align 8 dereferenceable(56) %3)
  %8 = icmp eq i32 %7, 34
  br label %9

9:                                                ; preds = %6, %1
  %10 = phi i1 [ false, %1 ], [ %8, %6 ]
  ret i1 %10
}

; Function Attrs: mustprogress nounwind uwtable
define linkonce_odr hidden void @_ZN4llvm9StringRefC2EPKc(ptr noundef nonnull align 8 dereferenceable(16) %0, ptr noundef %1) unnamed_addr #0 comdat align 2 {
  %3 = alloca ptr, align 8
  %4 = alloca ptr, align 8
  store ptr %0, ptr %3, align 8
  store ptr %1, ptr %4, align 8
  %5 = load ptr, ptr %3, align 8
  %6 = getelementptr inbounds nuw %"class.llvm::StringRef", ptr %5, i32 0, i32 0
  %7 = load ptr, ptr %4, align 8
  store ptr %7, ptr %6, align 8
  %8 = getelementptr inbounds nuw %"class.llvm::StringRef", ptr %5, i32 0, i32 1
  %9 = load ptr, ptr %4, align 8
  %10 = icmp ne ptr %9, null
  br i1 %10, label %11, label %14

11:                                               ; preds = %2
  %12 = load ptr, ptr %4, align 8
  %13 = call noundef i64 @_ZNSt11char_traitsIcE6lengthEPKc(ptr noundef %12)
  br label %15

14:                                               ; preds = %2
  br label %15

15:                                               ; preds = %14, %11
  %16 = phi i64 [ %13, %11 ], [ 0, %14 ]
  store i64 %16, ptr %8, align 8
  ret void
}

; Function Attrs: mustprogress nounwind uwtable
define linkonce_odr hidden noundef zeroext i1 @_ZNK4llvm9StringRef5emptyEv(ptr noundef nonnull align 8 dereferenceable(16) %0) #0 comdat align 2 {
  %2 = alloca ptr, align 8
  store ptr %0, ptr %2, align 8
  %3 = load ptr, ptr %2, align 8
  %4 = getelementptr inbounds nuw %"class.llvm::StringRef", ptr %3, i32 0, i32 1
  %5 = load i64, ptr %4, align 8
  %6 = icmp eq i64 %5, 0
  ret i1 %6
}

; Function Attrs: mustprogress nounwind uwtable
define internal noundef ptr @_ZL28createAArch64MCSubtargetInfoRKN4llvm6TripleENS_9StringRefES3_(ptr noundef nonnull align 8 dereferenceable(56) %0, ptr %1, i64 %2, ptr %3, i64 %4) #0 {
  %6 = alloca %"class.llvm::StringRef", align 8
  %7 = alloca %"class.llvm::StringRef", align 8
  %8 = alloca ptr, align 8
  %9 = alloca %"class.llvm::StringRef", align 8
  %10 = alloca %"class.llvm::StringRef", align 8
  %11 = alloca %"class.llvm::StringRef", align 8
  %12 = alloca %"class.llvm::StringRef", align 8
  %13 = alloca %"class.llvm::StringRef", align 8
  %14 = alloca %"class.llvm::StringRef", align 8
  %15 = alloca %"class.llvm::StringRef", align 8
  %16 = alloca %"class.llvm::StringRef", align 8
  %17 = getelementptr inbounds nuw { ptr, i64 }, ptr %6, i32 0, i32 0
  store ptr %1, ptr %17, align 8
  %18 = getelementptr inbounds nuw { ptr, i64 }, ptr %6, i32 0, i32 1
  store i64 %2, ptr %18, align 8
  %19 = getelementptr inbounds nuw { ptr, i64 }, ptr %7, i32 0, i32 0
  store ptr %3, ptr %19, align 8
  %20 = getelementptr inbounds nuw { ptr, i64 }, ptr %7, i32 0, i32 1
  store i64 %4, ptr %20, align 8
  store ptr %0, ptr %8, align 8
  call void @llvm.memcpy.p0.p0.i64(ptr align 8 %10, ptr align 8 %6, i64 16, i1 false)
  %21 = getelementptr inbounds nuw { ptr, i64 }, ptr %10, i32 0, i32 0
  %22 = load ptr, ptr %21, align 8
  %23 = getelementptr inbounds nuw { ptr, i64 }, ptr %10, i32 0, i32 1
  %24 = load i64, ptr %23, align 8
  %25 = call { ptr, i64 } @_ZN4llvm7AArch6415resolveCPUAliasENS_9StringRefE(ptr %22, i64 %24)
  %26 = getelementptr inbounds nuw { ptr, i64 }, ptr %9, i32 0, i32 0
  %27 = extractvalue { ptr, i64 } %25, 0
  store ptr %27, ptr %26, align 8
  %28 = getelementptr inbounds nuw { ptr, i64 }, ptr %9, i32 0, i32 1
  %29 = extractvalue { ptr, i64 } %25, 1
  store i64 %29, ptr %28, align 8
  call void @llvm.memcpy.p0.p0.i64(ptr align 8 %6, ptr align 8 %9, i64 16, i1 false)
  %30 = call noundef zeroext i1 @_ZNK4llvm9StringRef5emptyEv(ptr noundef nonnull align 8 dereferenceable(16) %6)
  br i1 %30, label %31, label %39

31:                                               ; preds = %5
  call void @_ZN4llvm9StringRefC2EPKc(ptr noundef nonnull align 8 dereferenceable(16) %11, ptr noundef @.str.598)
  call void @llvm.memcpy.p0.p0.i64(ptr align 8 %6, ptr align 8 %11, i64 16, i1 false)
  %32 = call noundef zeroext i1 @_ZNK4llvm9StringRef5emptyEv(ptr noundef nonnull align 8 dereferenceable(16) %7)
  br i1 %32, label %33, label %34

33:                                               ; preds = %31
  call void @_ZN4llvm9StringRefC2EPKc(ptr noundef nonnull align 8 dereferenceable(16) %12, ptr noundef @.str.1082)
  call void @llvm.memcpy.p0.p0.i64(ptr align 8 %7, ptr align 8 %12, i64 16, i1 false)
  br label %34

34:                                               ; preds = %33, %31
  %35 = load ptr, ptr %8, align 8
  %36 = call noundef zeroext i1 @_ZNK4llvm6Triple8isArm64eEv(ptr noundef nonnull align 8 dereferenceable(56) %35)
  br i1 %36, label %37, label %38

37:                                               ; preds = %34
  call void @_ZN4llvm9StringRefC2EPKc(ptr noundef nonnull align 8 dereferenceable(16) %13, ptr noundef @.str.72)
  call void @llvm.memcpy.p0.p0.i64(ptr align 8 %6, ptr align 8 %13, i64 16, i1 false)
  br label %38

38:                                               ; preds = %37, %34
  br label %39

39:                                               ; preds = %38, %5
  %40 = load ptr, ptr %8, align 8
  call void @llvm.memcpy.p0.p0.i64(ptr align 8 %14, ptr align 8 %6, i64 16, i1 false)
  call void @llvm.memcpy.p0.p0.i64(ptr align 8 %15, ptr align 8 %6, i64 16, i1 false)
  call void @llvm.memcpy.p0.p0.i64(ptr align 8 %16, ptr align 8 %7, i64 16, i1 false)
  %41 = getelementptr inbounds nuw { ptr, i64 }, ptr %14, i32 0, i32 0
  %42 = load ptr, ptr %41, align 8
  %43 = getelementptr inbounds nuw { ptr, i64 }, ptr %14, i32 0, i32 1
  %44 = load i64, ptr %43, align 8
  %45 = getelementptr inbounds nuw { ptr, i64 }, ptr %15, i32 0, i32 0
  %46 = load ptr, ptr %45, align 8
  %47 = getelementptr inbounds nuw { ptr, i64 }, ptr %15, i32 0, i32 1
  %48 = load i64, ptr %47, align 8
  %49 = call noundef ptr @_ZN4llvmL32createAArch64MCSubtargetInfoImplERKNS_6TripleENS_9StringRefES3_S3_(ptr noundef nonnull align 8 dereferenceable(56) %40, ptr %42, i64 %44, ptr %46, i64 %48, ptr noundef byval(%"class.llvm::StringRef") align 8 %16)
  ret ptr %49
}