; Function Attrs: mustprogress nounwind uwtable
define internal noundef nonnull ptr @_ZL28createAArch64MCSubtargetInfoRKN4llvm6TripleENS_9StringRefES3_(ptr noundef nonnull align 8 dereferenceable(56) %0, ptr %1, i64 %2, ptr %3, i64 %4) #2 {
  %6 = alloca %"class.llvm::ArrayRef.26", align 8
  %7 = alloca %"class.llvm::ArrayRef", align 8
  %8 = alloca %"class.llvm::StringRef", align 8
  %9 = tail call { ptr, i64 } @_ZN4llvm7AArch6415resolveCPUAliasENS_9StringRefE(ptr %1, i64 %2) #18
  %10 = extractvalue { ptr, i64 } %9, 0
  %11 = extractvalue { ptr, i64 } %9, 1
  %12 = icmp eq i64 %11, 0
  br i1 %12, label %13, label %22

13:                                               ; preds = %5
  %14 = icmp eq i64 %4, 0
  %spec.select = select i1 %14, ptr @.str.1082, ptr %3
  %spec.select17 = select i1 %14, i64 4, i64 %4
  %15 = getelementptr inbounds nuw i8, ptr %0, i64 32
  %16 = load i32, ptr %15, align 8
  %17 = icmp eq i32 %16, 3
  %18 = getelementptr inbounds nuw i8, ptr %0, i64 36
  %19 = load i32, ptr %18, align 4
  %20 = icmp eq i32 %19, 34
  %21 = select i1 %17, i1 %20, i1 false
  %spec.select18 = select i1 %21, ptr @.str.72, ptr @.str.598
  %spec.select19 = select i1 %21, i64 9, i64 7
  br label %22

22:                                               ; preds = %13, %5
  %.sroa.012.0 = phi ptr [ %3, %5 ], [ %spec.select, %13 ]
  %.sroa.3.0 = phi i64 [ %4, %5 ], [ %spec.select17, %13 ]
  %.sroa.015.0 = phi ptr [ %10, %5 ], [ %spec.select18, %13 ]
  %.sroa.5.0 = phi i64 [ %11, %5 ], [ %spec.select19, %13 ]
  call void @llvm.lifetime.start.p0(i64 16, ptr nonnull %8)
  store ptr %.sroa.012.0, ptr %8, align 8
  %.sroa.214.0..sroa_idx = getelementptr inbounds nuw i8, ptr %8, i64 8
  store i64 %.sroa.3.0, ptr %.sroa.214.0..sroa_idx, align 8
  %23 = tail call { ptr, i64 } @_ZN4llvm7AArch6415resolveCPUAliasENS_9StringRefE(ptr %.sroa.015.0, i64 %.sroa.5.0) #18
  %24 = extractvalue { ptr, i64 } %23, 0
  %25 = extractvalue { ptr, i64 } %23, 1
  %26 = tail call { ptr, i64 } @_ZN4llvm7AArch6415resolveCPUAliasENS_9StringRefE(ptr %.sroa.015.0, i64 %.sroa.5.0) #18
  %27 = extractvalue { ptr, i64 } %26, 0
  %28 = extractvalue { ptr, i64 } %26, 1
  %29 = tail call noalias noundef nonnull dereferenceable(288) ptr @_Znwm(i64 noundef 288) #19
  call void @llvm.lifetime.start.p0(i64 16, ptr nonnull %7)
  call void @llvm.lifetime.start.p0(i64 16, ptr nonnull %6)
  store ptr @_ZN4llvm16AArch64SubTypeKVE, ptr %6, align 8
  %.sroa.2.0..sroa_idx.i = getelementptr inbounds nuw i8, ptr %6, i64 8
  store i64 71, ptr %.sroa.2.0..sroa_idx.i, align 8
  store ptr @_ZN4llvm16AArch64FeatureKVE, ptr %7, align 8
  %.sroa.217.0..sroa_idx.i = getelementptr inbounds nuw i8, ptr %7, i64 8
  store i64 287, ptr %.sroa.217.0..sroa_idx.i, align 8
  tail call void @_ZN4llvm15MCSubtargetInfoC2ERKNS_6TripleENS_9StringRefES4_S4_NS_8ArrayRefINS_18SubtargetFeatureKVEEENS5_INS_18SubtargetSubTypeKVEEEPKNS_19MCWriteProcResEntryEPKNS_19MCWriteLatencyEntryEPKNS_18MCReadAdvanceEntryEPKNS_10InstrStageEPKjSN_(ptr noundef nonnull align 8 dereferenceable(288) %29, ptr noundef nonnull align 8 dereferenceable(56) %0, ptr %24, i64 %25, ptr %27, i64 %28, ptr noundef nonnull byval(%"class.llvm::StringRef") align 8 %8, ptr noundef nonnull byval(%"class.llvm::ArrayRef") align 8 %7, ptr noundef nonnull byval(%"class.llvm::ArrayRef.26") align 8 %6, ptr noundef nonnull @_ZN4llvm24AArch64WriteProcResTableE, ptr noundef nonnull @_ZN4llvm24AArch64WriteLatencyTableE, ptr noundef nonnull @_ZN4llvm23AArch64ReadAdvanceTableE, ptr noundef null, ptr noundef null, ptr noundef null) #18
  store ptr getelementptr inbounds nuw inrange(-16, 120) (i8, ptr @_ZTVN4llvm25AArch64GenMCSubtargetInfoE, i64 16), ptr %29, align 8
  call void @llvm.lifetime.end.p0(i64 16, ptr nonnull %7)
  call void @llvm.lifetime.end.p0(i64 16, ptr nonnull %6)
  call void @llvm.lifetime.end.p0(i64 16, ptr nonnull %8)
  ret ptr %29
}